; ModuleID = '51/320.c'
source_filename = "51/320.c"
target datalayout = "e-m:e-p270:32:32-p271:32:32-p272:64:64-i64:64-f80:128-n8:16:32:64-S128"
target triple = "x86_64-pc-linux-gnu"

@.str = private unnamed_addr constant [3 x i8] c"%d\00", align 1
@.str.1 = private unnamed_addr constant [4 x i8] c"NO\0A\00", align 1
@.str.2 = private unnamed_addr constant [4 x i8] c"%d\0A\00", align 1
@.str.3 = private unnamed_addr constant [3 x i8] c"%c\00", align 1

; Function Attrs: noinline nounwind uwtable
define dso_local i32 @main() #0 {
  %1 = alloca i32, align 4
  %2 = alloca i32, align 4
  %3 = alloca [501 x i8], align 16
  %4 = alloca i32, align 4
  %5 = alloca [501 x i32], align 16
  %6 = alloca i32, align 4
  %7 = alloca i32, align 4
  %8 = alloca i32, align 4
  %9 = alloca i32, align 4
  %10 = alloca i32, align 4
  %11 = alloca i32, align 4
  store i32 0, i32* %1, align 4
  %12 = call i32 (i8*, ...) @__isoc99_scanf(i8* getelementptr inbounds ([3 x i8], [3 x i8]* @.str, i64 0, i64 0), i32* %2)
  %13 = call i32 @getchar()
  %14 = getelementptr inbounds [501 x i8], [501 x i8]* %3, i64 0, i64 0
  %15 = call i32 (i8*, ...) bitcast (i32 (...)* @gets to i32 (i8*, ...)*)(i8* %14)
  store i32 0, i32* %4, align 4
  br label %16

16:                                               ; preds = %24, %0
  %17 = load i32, i32* %4, align 4
  %18 = sext i32 %17 to i64
  %19 = getelementptr inbounds [501 x i8], [501 x i8]* %3, i64 0, i64 %18
  %20 = load i8, i8* %19, align 1
  %21 = sext i8 %20 to i32
  %22 = icmp ne i32 %21, 0
  br i1 %22, label %23, label %27

23:                                               ; preds = %16
  br label %24

24:                                               ; preds = %23
  %25 = load i32, i32* %4, align 4
  %26 = add nsw i32 %25, 1
  store i32 %26, i32* %4, align 4
  br label %16

27:                                               ; preds = %16
  store i32 0, i32* %11, align 4
  store i32 0, i32* %6, align 4
  br label %28

28:                                               ; preds = %101, %27
  %29 = load i32, i32* %6, align 4
  %30 = load i32, i32* %4, align 4
  %31 = load i32, i32* %2, align 4
  %32 = sub nsw i32 %30, %31
  %33 = icmp sle i32 %29, %32
  br i1 %33, label %34, label %104

34:                                               ; preds = %28
  %35 = load i32, i32* %6, align 4
  %36 = sext i32 %35 to i64
  %37 = getelementptr inbounds [501 x i32], [501 x i32]* %5, i64 0, i64 %36
  store i32 1, i32* %37, align 4
  %38 = load i32, i32* %6, align 4
  %39 = add nsw i32 %38, 1
  store i32 %39, i32* %8, align 4
  br label %40

40:                                               ; preds = %97, %34
  %41 = load i32, i32* %8, align 4
  %42 = load i32, i32* %4, align 4
  %43 = load i32, i32* %2, align 4
  %44 = sub nsw i32 %42, %43
  %45 = icmp sle i32 %41, %44
  br i1 %45, label %46, label %100

46:                                               ; preds = %40
  store i32 1, i32* %10, align 4
  store i32 0, i32* %9, align 4
  br label %47

47:                                               ; preds = %69, %46
  %48 = load i32, i32* %9, align 4
  %49 = load i32, i32* %2, align 4
  %50 = icmp slt i32 %48, %49
  br i1 %50, label %51, label %72

51:                                               ; preds = %47
  %52 = load i32, i32* %6, align 4
  %53 = load i32, i32* %9, align 4
  %54 = add nsw i32 %52, %53
  %55 = sext i32 %54 to i64
  %56 = getelementptr inbounds [501 x i8], [501 x i8]* %3, i64 0, i64 %55
  %57 = load i8, i8* %56, align 1
  %58 = sext i8 %57 to i32
  %59 = load i32, i32* %8, align 4
  %60 = load i32, i32* %9, align 4
  %61 = add nsw i32 %59, %60
  %62 = sext i32 %61 to i64
  %63 = getelementptr inbounds [501 x i8], [501 x i8]* %3, i64 0, i64 %62
  %64 = load i8, i8* %63, align 1
  %65 = sext i8 %64 to i32
  %66 = icmp ne i32 %58, %65
  br i1 %66, label %67, label %68

67:                                               ; preds = %51
  store i32 0, i32* %10, align 4
  br label %72

68:                                               ; preds = %51
  br label %69

69:                                               ; preds = %68
  %70 = load i32, i32* %9, align 4
  %71 = add nsw i32 %70, 1
  store i32 %71, i32* %9, align 4
  br label %47

72:                                               ; preds = %67, %47
  %73 = load i32, i32* %10, align 4
  %74 = icmp eq i32 %73, 1
  br i1 %74, label %75, label %96

75:                                               ; preds = %72
  %76 = load i32, i32* %6, align 4
  %77 = sext i32 %76 to i64
  %78 = getelementptr inbounds [501 x i32], [501 x i32]* %5, i64 0, i64 %77
  %79 = load i32, i32* %78, align 4
  %80 = add nsw i32 %79, 1
  %81 = load i32, i32* %6, align 4
  %82 = sext i32 %81 to i64
  %83 = getelementptr inbounds [501 x i32], [501 x i32]* %5, i64 0, i64 %82
  store i32 %80, i32* %83, align 4
  %84 = load i32, i32* %6, align 4
  %85 = sext i32 %84 to i64
  %86 = getelementptr inbounds [501 x i32], [501 x i32]* %5, i64 0, i64 %85
  %87 = load i32, i32* %86, align 4
  %88 = load i32, i32* %11, align 4
  %89 = icmp sgt i32 %87, %88
  br i1 %89, label %90, label %95

90:                                               ; preds = %75
  %91 = load i32, i32* %6, align 4
  %92 = sext i32 %91 to i64
  %93 = getelementptr inbounds [501 x i32], [501 x i32]* %5, i64 0, i64 %92
  %94 = load i32, i32* %93, align 4
  store i32 %94, i32* %11, align 4
  br label %95

95:                                               ; preds = %90, %75
  br label %96

96:                                               ; preds = %95, %72
  br label %97

97:                                               ; preds = %96
  %98 = load i32, i32* %8, align 4
  %99 = add nsw i32 %98, 1
  store i32 %99, i32* %8, align 4
  br label %40

100:                                              ; preds = %40
  br label %101

101:                                              ; preds = %100
  %102 = load i32, i32* %6, align 4
  %103 = add nsw i32 %102, 1
  store i32 %103, i32* %6, align 4
  br label %28

104:                                              ; preds = %28
  %105 = load i32, i32* %11, align 4
  %106 = icmp eq i32 %105, 0
  br i1 %106, label %107, label %109

107:                                              ; preds = %104
  %108 = call i32 (i8*, ...) @printf(i8* getelementptr inbounds ([4 x i8], [4 x i8]* @.str.1, i64 0, i64 0))
  store i32 0, i32* %1, align 4
  br label %149

109:                                              ; preds = %104
  %110 = load i32, i32* %11, align 4
  %111 = call i32 (i8*, ...) @printf(i8* getelementptr inbounds ([4 x i8], [4 x i8]* @.str.2, i64 0, i64 0), i32 %110)
  store i32 0, i32* %6, align 4
  br label %112

112:                                              ; preds = %145, %109
  %113 = load i32, i32* %6, align 4
  %114 = load i32, i32* %4, align 4
  %115 = load i32, i32* %2, align 4
  %116 = sub nsw i32 %114, %115
  %117 = icmp slt i32 %113, %116
  br i1 %117, label %118, label %148

118:                                              ; preds = %112
  %119 = load i32, i32* %6, align 4
  %120 = sext i32 %119 to i64
  %121 = getelementptr inbounds [501 x i32], [501 x i32]* %5, i64 0, i64 %120
  %122 = load i32, i32* %121, align 4
  %123 = load i32, i32* %11, align 4
  %124 = icmp eq i32 %122, %123
  br i1 %124, label %125, label %144

125:                                              ; preds = %118
  store i32 0, i32* %7, align 4
  br label %126

126:                                              ; preds = %139, %125
  %127 = load i32, i32* %7, align 4
  %128 = load i32, i32* %2, align 4
  %129 = icmp slt i32 %127, %128
  br i1 %129, label %130, label %142

130:                                              ; preds = %126
  %131 = load i32, i32* %6, align 4
  %132 = load i32, i32* %7, align 4
  %133 = add nsw i32 %131, %132
  %134 = sext i32 %133 to i64
  %135 = getelementptr inbounds [501 x i8], [501 x i8]* %3, i64 0, i64 %134
  %136 = load i8, i8* %135, align 1
  %137 = sext i8 %136 to i32
  %138 = call i32 (i8*, ...) @printf(i8* getelementptr inbounds ([3 x i8], [3 x i8]* @.str.3, i64 0, i64 0), i32 %137)
  br label %139

139:                                              ; preds = %130
  %140 = load i32, i32* %7, align 4
  %141 = add nsw i32 %140, 1
  store i32 %141, i32* %7, align 4
  br label %126

142:                                              ; preds = %126
  %143 = call i32 @putchar(i32 10)
  br label %144

144:                                              ; preds = %142, %118
  br label %145

145:                                              ; preds = %144
  %146 = load i32, i32* %6, align 4
  %147 = add nsw i32 %146, 1
  store i32 %147, i32* %6, align 4
  br label %112

148:                                              ; preds = %112
  store i32 0, i32* %1, align 4
  br label %149

149:                                              ; preds = %148, %107
  %150 = load i32, i32* %1, align 4
  ret i32 %150
}

declare dso_local i32 @__isoc99_scanf(i8*, ...) #1

declare dso_local i32 @getchar() #1

declare dso_local i32 @gets(...) #1

declare dso_local i32 @printf(i8*, ...) #1

declare dso_local i32 @putchar(i32) #1


!llvm.module.flags = !{!0}
!llvm.ident = !{!1}

!0 = !{i32 1, !"wchar_size", i32 4}
!1 = !{!"clang version 10.0.0-4ubuntu1 "}
